target datalayout = "e-m:e-p270:32:32-p271:32:32-p272:64:64-i64:64-i128:128-f80:128-n8:16:32:64-S128"
target triple = "x86_64-pc-linux-gnu"

%struct.lua_Debug = type { i32, ptr, ptr, ptr, ptr, i32, i32, i32, i32, [60 x i8], i32 }

@.str.7 = private unnamed_addr constant [3 x i8] c"Sl\00", align 1
@.str.8 = private unnamed_addr constant [8 x i8] c"%s:%d: \00", align 1
@.str.9 = private unnamed_addr constant [1 x i8] zeroinitializer, align 1

; Function Attrs: nounwind uwtable
define dso_local void @luaL_where(ptr noundef %0, i32 noundef %1) #0 {
  %3 = alloca ptr, align 8
  %4 = alloca i32, align 4
  %5 = alloca %struct.lua_Debug, align 8
  %6 = alloca i32, align 4
  store ptr %0, ptr %3, align 8, !tbaa !4
  store i32 %1, ptr %4, align 4, !tbaa !9
  call void @llvm.lifetime.start.p0(i64 120, ptr %5) #9
  %7 = load ptr, ptr %3, align 8, !tbaa !4
  %8 = load i32, ptr %4, align 4, !tbaa !9
  %9 = call i32 @lua_getstack(ptr noundef %7, i32 noundef %8, ptr noundef %5)
  %10 = icmp ne i32 %9, 0
  br i1 %10, label %11, label %25

11:                                               ; preds = %2
  %12 = load ptr, ptr %3, align 8, !tbaa !4
  %13 = call i32 @lua_getinfo(ptr noundef %12, ptr noundef @.str.7, ptr noundef %5)
  %14 = getelementptr inbounds nuw %struct.lua_Debug, ptr %5, i32 0, i32 5
  %15 = load i32, ptr %14, align 8, !tbaa !16
  %16 = icmp sgt i32 %15, 0
  br i1 %16, label %17, label %24

17:                                               ; preds = %11
  %18 = load ptr, ptr %3, align 8, !tbaa !4
  %19 = getelementptr inbounds nuw %struct.lua_Debug, ptr %5, i32 0, i32 9
  %20 = getelementptr inbounds [60 x i8], ptr %19, i64 0, i64 0
  %21 = getelementptr inbounds nuw %struct.lua_Debug, ptr %5, i32 0, i32 5
  %22 = load i32, ptr %21, align 8, !tbaa !16
  %23 = call ptr (ptr, ptr, ...) @lua_pushfstring(ptr noundef %18, ptr noundef @.str.8, ptr noundef %20, i32 noundef %22)
  store i32 1, ptr %6, align 4
  br label %27

24:                                               ; preds = %11
  br label %25

25:                                               ; preds = %24, %2
  %26 = load ptr, ptr %3, align 8, !tbaa !4
  call void @lua_pushlstring(ptr noundef %26, ptr noundef @.str.9, i64 noundef 0)
  store i32 0, ptr %6, align 4
  br label %27

27:                                               ; preds = %25, %17
  call void @llvm.lifetime.end.p0(i64 120, ptr %5) #9
  %28 = load i32, ptr %6, align 4
  switch i32 %28, label %30 [
    i32 0, label %29
    i32 1, label %29
  ]

29:                                               ; preds = %27, %27
  ret void

30:                                               ; preds = %27
  unreachable
}