; Function Attrs: nounwind uwtable
define dso_local void @luaL_where(ptr noundef %0, i32 noundef %1) local_unnamed_addr #0 {
  %3 = alloca %struct.lua_Debug, align 8
  call void @llvm.lifetime.start.p0(i64 120, ptr nonnull %3) #17
  %4 = call i32 @lua_getstack(ptr noundef %0, i32 noundef %1, ptr noundef nonnull %3) #17
  %.not = icmp eq i32 %4, 0
  br i1 %.not, label %13, label %5

5:                                                ; preds = %2
  %6 = call i32 @lua_getinfo(ptr noundef %0, ptr noundef nonnull @.str.7, ptr noundef nonnull %3) #17
  %7 = getelementptr inbounds nuw i8, ptr %3, i64 40
  %8 = load i32, ptr %7, align 8, !tbaa !12
  %9 = icmp sgt i32 %8, 0
  br i1 %9, label %10, label %13

10:                                               ; preds = %5
  %11 = getelementptr inbounds nuw i8, ptr %3, i64 56
  %12 = call ptr (ptr, ptr, ...) @lua_pushfstring(ptr noundef %0, ptr noundef nonnull @.str.8, ptr noundef nonnull %11, i32 noundef %8) #17
  br label %14

13:                                               ; preds = %5, %2
  call void @lua_pushlstring(ptr noundef %0, ptr noundef nonnull @.str.9, i64 noundef 0) #17
  br label %14

14:                                               ; preds = %13, %10
  call void @llvm.lifetime.end.p0(i64 120, ptr nonnull %3) #17
  ret void
}